Certificate:
    Data:
        Version: 1 (0x0)
        Serial Number: 1 (0x1)
        Signature Algorithm: md5WithRSAEncryption
        Issuer: O=cf, OU=dev/emailAddress=cfdev-ca@cfdev.com, L=Ft. Meade, ST=Maryland, C=US, CN=cfdev-ca
        Validity
            Not Before: Oct  4 18:50:58 2011 GMT
            Not After : Oct  1 18:50:58 2021 GMT
        Subject: C=US, ST=Maryland, O=cf, OU=dev, CN=localhost
        Subject Public Key Info:
            Public Key Algorithm: rsaEncryption
            RSA Public Key: (1024 bit)
                Modulus (1024 bit):
                    00:b8:b3:be:10:6d:53:7f:ab:48:54:37:ef:73:08:
                    c0:22:a9:f0:7a:18:da:12:c3:29:94:32:e1:a6:24:
                    8f:fd:34:32:5e:9e:60:cf:16:09:45:45:53:d1:ba:
                    7b:14:cc:15:3f:fa:4d:e1:02:b7:55:6a:ab:85:88:
                    d3:e2:30:c2:50:06:61:10:07:69:50:b9:0e:13:0a:
                    74:51:3c:1a:2b:74:f1:cf:56:55:bd:04:00:11:32:
                    d8:72:25:c3:46:c1:5a:f1:51:a1:7b:2f:05:94:fc:
                    5f:aa:d4:10:4e:a6:3a:d3:b4:37:46:c2:41:c8:18:
                    ed:30:7e:3a:59:c5:56:09:d5
                Exponent: 65537 (0x10001)
    Signature Algorithm: md5WithRSAEncryption
        74:57:77:d1:88:c2:5a:a7:01:20:b8:2b:79:10:6a:14:eb:a6:
        32:c3:62:1b:7d:56:d2:8d:b3:e9:3f:18:63:64:6d:3d:c3:67:
        64:3e:ee:13:12:d0:b8:2b:80:d4:8e:bc:c3:38:26:a5:46:e6:
        79:45:8c:0c:51:51:48:d7:20:de:da:e8:22:34:87:47:fa:39:
        70:7c:10:6d:da:3b:13:d9:bb:1c:73:e0:5a:64:ba:f8:32:c3:
        df:a6:50:ec:9a:55:c9:c9:9f:29:82:b9:15:28:ab:23:22:df:
        03:30:1b:31:4b:fb:02:75:0b:c8:31:16:44:91:45:50:ad:33:
        83:e0
-----BEGIN CERTIFICATE-----
MIICRDCCAa0CAQEwDQYJKoZIhvcNAQEEBQAwgYUxCzAJBgNVBAoTAmNmMQwwCgYD
VQQLEwNkZXYxITAfBgkqhkiG9w0BCQEWEmNmZGV2LWNhQGNmZGV2LmNvbTESMBAG
A1UEBxMJRnQuIE1lYWRlMREwDwYDVQQIEwhNYXJ5bGFuZDELMAkGA1UEBhMCVVMx
ETAPBgNVBAMTCGNmZGV2LWNhMB4XDTExMTAwNDE4NTA1OFoXDTIxMTAwMTE4NTA1
OFowTzELMAkGA1UEBhMCVVMxETAPBgNVBAgTCE1hcnlsYW5kMQswCQYDVQQKEwJj
ZjEMMAoGA1UECxMDZGV2MRIwEAYDVQQDEwlsb2NhbGhvc3QwgZ8wDQYJKoZIhvcN
AQEBBQADgY0AMIGJAoGBALizvhBtU3+rSFQ373MIwCKp8HoY2hLDKZQy4aYkj/00
Ml6eYM8WCUVFU9G6exTMFT/6TeECt1Vqq4WI0+IwwlAGYRAHaVC5DhMKdFE8Git0
8c9WVb0EABEy2HIlw0bBWvFRoXsvBZT8X6rUEE6mOtO0N0bCQcgY7TB+OlnFVgnV
AgMBAAEwDQYJKoZIhvcNAQEEBQADgYEAdFd30YjCWqcBILgreRBqFOumMsNiG31W
0o2z6T8YY2RtPcNnZD7uExLQuCuA1I68wzgmpUbmeUWMDFFRSNcg3troIjSHR/o5
cHwQbdo7E9m7HHPgWmS6+DLD36ZQ7JpVycmfKYK5FSirIyLfAzAbMUv7AnULyDEW
RJFFUK0zg+A=
-----END CERTIFICATE-----
